; Function Attrs: mustprogress nofree norecurse nosync nounwind willreturn memory(argmem: write) uwtable
define void @PHP_SHA256InitArgs(ptr nocapture noundef writeonly %0, ptr nocapture readnone %1) #1 {
  %3 = getelementptr inbounds i8, ptr %0, i64 32
  %4 = getelementptr inbounds i8, ptr %0, i64 36
  store i32 0, ptr %4, align 4
  store i32 0, ptr %3, align 4
  store <4 x i32> <i32 1779033703, i32 -1150833019, i32 1013904242, i32 -1521486534>, ptr %0, align 4
  %5 = getelementptr inbounds i8, ptr %0, i64 16
  store <4 x i32> <i32 1359893119, i32 -1694144372, i32 528734635, i32 1541459225>, ptr %5, align 4
  ret void
}